(lp0
(dp1
Vdomain
p2
Vwww.qichacha.com
p3
sVsecure
p4
I00
sVvalue
p5
VAQAAAJHhXn2XNgUANX6frzBRIZg546eq
p6
sVexpiry
p7
NsVpath
p8
V/
p9
sVhttpOnly
p10
I01
sVname
p11
Vacw_tc
p12
sa(dp13
Vdomain
p14
V.qichacha.com
p15
sVsecure
p16
I00
sVvalue
p17
V15f0095426d57a-0766e516e3ebde8-49546c-13c680-15f0095426e648
p18
sVexpiry
p19
NsVpath
p20
g9
sVhttpOnly
p21
I00
sVname
p22
VUM_distinctid
p23
sa(dp24
Vdomain
p25
Vwww.qichacha.com
p26
sVsecure
p27
I00
sVvalue
p28
V1
p29
sVexpiry
p30
NsVpath
p31
g9
sVhttpOnly
p32
I00
sVname
p33
VhasShow
p34
sa(dp35
Vdomain
p36
Vwww.qichacha.com
p37
sVsecure
p38
I00
sVvalue
p39
V150754331992670905808589
p40
sVexpiry
p41
NsVpath
p42
g9
sVhttpOnly
p43
I00
sVname
p44
V_uab_collina
p45
sa(dp46
Vdomain
p47
Vwww.qichacha.com
p48
sVsecure
p49
I00
sVvalue
p50
V65F7F3A2F63DF0202B8D676B196617D763DC9EFFF039058628B963A6CB6E468D7757748D1CE4DB23CD43AD3E795C914C1C0DC4BEC3ABD7A18A50B907F3BDF448
p51
sVexpiry
p52
NsVpath
p53
g9
sVhttpOnly
p54
I00
sVname
p55
V_umdata
p56
sa(dp57
Vdomain
p58
Vwww.qichacha.com
p59
sVsecure
p60
I00
sVvalue
p61
Vp41sa4sd17r0h4bm00njgohsc4
p62
sVexpiry
p63
NsVpath
p64
g9
sVhttpOnly
p65
I00
sVname
p66
VPHPSESSID
p67
sa(dp68
Vdomain
p69
Vwww.qichacha.com
p70
sVsecure
p71
I00
sVvalue
p72
V992489862-1507542224-%7C1507542224
p73
sVexpiry
p74
NsVpath
p75
g9
sVhttpOnly
p76
I00
sVname
p77
VCNZZDATA1254842228
p78
sa(dp79
Vdomain
p80
V.qichacha.com
p81
sVsecure
p82
I00
sVvalue
p83
V%7B%22did%22%3A%20%2215f0095434b22f-0ee062eef168a4-49546c-13c680-15f0095434c4e7%22%7D
p84
sVexpiry
p85
NsVpath
p86
g9
sVhttpOnly
p87
I00
sVname
p88
Vzg_did
p89
sa(dp90
Vdomain
p91
V.qichacha.com
p92
sVsecure
p93
I00
sVvalue
p94
V%7B%22sid%22%3A%201507543302991%2C%22updated%22%3A%201507543382596%2C%22info%22%3A%201507543302994%2C%22superProperty%22%3A%20%22%7B%7D%22%2C%22platform%22%3A%20%22%7B%7D%22%2C%22utm%22%3A%20%22%7B%7D%22%2C%22referrerDomain%22%3A%20%22%22%2C%22cuid%22%3A%20%224ddd83b6a6b7752de9cd07d1f3c8c9a6%22%7D
p95
sVexpiry
p96
NsVpath
p97
g9
sVhttpOnly
p98
I00
sVname
p99
Vzg_de1d1a35bfa24ce29bbf2c7eb17e6c4f
p100
sa.